; Function Attrs: nounwind uwtable
define ptr @l_Array_findSomeRevM_x3f_find___at___private_Lean_Meta_Tactic_SplitIf_0__Lean_Meta_SplitIf_discharge_x3f___spec__3___boxed(ptr noundef %0, ptr noundef %1, ptr noundef %2, ptr noundef %3, ptr noundef readnone captures(none) %4, ptr noundef %5, ptr noundef %6, ptr noundef %7, ptr noundef %8, ptr noundef %9, ptr noundef %10, ptr noundef %11, ptr noundef %12) local_unnamed_addr #1 {
  %14 = tail call ptr @l_Array_findSomeRevM_x3f_find___at___private_Lean_Meta_Tactic_SplitIf_0__Lean_Meta_SplitIf_discharge_x3f___spec__3(ptr noundef %0, ptr noundef %1, ptr noundef %2, ptr noundef %3, ptr poison, ptr poison, ptr poison, ptr poison, ptr noundef %8, ptr noundef %9, ptr noundef %10, ptr noundef %11, ptr noundef %12)
  %15 = ptrtoint ptr %7 to i64
  %16 = and i64 %15, 1
  %.not = icmp eq i64 %16, 0
  br i1 %.not, label %17, label %lean_dec.exit22

17:                                               ; preds = %13
  %18 = load i32, ptr %7, align 4, !tbaa !4
  %19 = icmp sgt i32 %18, 1
  br i1 %19, label %20, label %22, !prof !9

20:                                               ; preds = %17
  %21 = add nsw i32 %18, -1
  store i32 %21, ptr %7, align 4, !tbaa !4
  br label %lean_dec.exit22

22:                                               ; preds = %17
  %.not.i = icmp eq i32 %18, 0
  br i1 %.not.i, label %lean_dec.exit22, label %23

23:                                               ; preds = %22
  tail call void @lean_dec_ref_cold(ptr noundef nonnull %7) #7
  br label %lean_dec.exit22

lean_dec.exit22:                                  ; preds = %23, %22, %20, %13
  %24 = ptrtoint ptr %6 to i64
  %25 = and i64 %24, 1
  %.not31 = icmp eq i64 %25, 0
  br i1 %.not31, label %26, label %lean_dec.exit21

26:                                               ; preds = %lean_dec.exit22
  %27 = load i32, ptr %6, align 4, !tbaa !4
  %28 = icmp sgt i32 %27, 1
  br i1 %28, label %29, label %31, !prof !9

29:                                               ; preds = %26
  %30 = add nsw i32 %27, -1
  store i32 %30, ptr %6, align 4, !tbaa !4
  br label %lean_dec.exit21

31:                                               ; preds = %26
  %.not.i23 = icmp eq i32 %27, 0
  br i1 %.not.i23, label %lean_dec.exit21, label %32

32:                                               ; preds = %31
  tail call void @lean_dec_ref_cold(ptr noundef nonnull %6) #7
  br label %lean_dec.exit21

lean_dec.exit21:                                  ; preds = %32, %31, %29, %lean_dec.exit22
  %33 = ptrtoint ptr %5 to i64
  %34 = and i64 %33, 1
  %.not32 = icmp eq i64 %34, 0
  br i1 %.not32, label %35, label %lean_dec.exit20

35:                                               ; preds = %lean_dec.exit21
  %36 = load i32, ptr %5, align 4, !tbaa !4
  %37 = icmp sgt i32 %36, 1
  br i1 %37, label %38, label %40, !prof !9

38:                                               ; preds = %35
  %39 = add nsw i32 %36, -1
  store i32 %39, ptr %5, align 4, !tbaa !4
  br label %lean_dec.exit20

40:                                               ; preds = %35
  %.not.i25 = icmp eq i32 %36, 0
  br i1 %.not.i25, label %lean_dec.exit20, label %41

41:                                               ; preds = %40
  tail call void @lean_dec_ref_cold(ptr noundef nonnull %5) #7
  br label %lean_dec.exit20

lean_dec.exit20:                                  ; preds = %41, %40, %38, %lean_dec.exit21
  %42 = ptrtoint ptr %2 to i64
  %43 = and i64 %42, 1
  %.not33 = icmp eq i64 %43, 0
  br i1 %.not33, label %44, label %lean_dec.exit19

44:                                               ; preds = %lean_dec.exit20
  %45 = load i32, ptr %2, align 4, !tbaa !4
  %46 = icmp sgt i32 %45, 1
  br i1 %46, label %47, label %49, !prof !9

47:                                               ; preds = %44
  %48 = add nsw i32 %45, -1
  store i32 %48, ptr %2, align 4, !tbaa !4
  br label %lean_dec.exit19

49:                                               ; preds = %44
  %.not.i27 = icmp eq i32 %45, 0
  br i1 %.not.i27, label %lean_dec.exit19, label %50

50:                                               ; preds = %49
  tail call void @lean_dec_ref_cold(ptr noundef nonnull %2) #7
  br label %lean_dec.exit19

lean_dec.exit19:                                  ; preds = %50, %49, %47, %lean_dec.exit20
  %51 = ptrtoint ptr %0 to i64
  %52 = and i64 %51, 1
  %.not34 = icmp eq i64 %52, 0
  br i1 %.not34, label %53, label %lean_dec.exit

53:                                               ; preds = %lean_dec.exit19
  %54 = load i32, ptr %0, align 4, !tbaa !4
  %55 = icmp sgt i32 %54, 1
  br i1 %55, label %56, label %58, !prof !9

56:                                               ; preds = %53
  %57 = add nsw i32 %54, -1
  store i32 %57, ptr %0, align 4, !tbaa !4
  br label %lean_dec.exit

58:                                               ; preds = %53
  %.not.i29 = icmp eq i32 %54, 0
  br i1 %.not.i29, label %lean_dec.exit, label %59

59:                                               ; preds = %58
  tail call void @lean_dec_ref_cold(ptr noundef nonnull %0) #7
  br label %lean_dec.exit

lean_dec.exit:                                    ; preds = %59, %58, %56, %lean_dec.exit19
  ret ptr %14
}